target datalayout = "e-m:e-p270:32:32-p271:32:32-p272:64:64-i64:64-i128:128-f80:128-n8:16:32:64-S128"
target triple = "x86_64-pc-linux-gnu"

%struct.mlib_image = type { i32, i32, i32, i32, i32, i32, ptr, ptr, [4 x i8], i32, i32, [3 x i32] }

; Function Attrs: nounwind uwtable
define ptr @j2d_mlib_ImageCreate(i32 noundef %0, i32 noundef %1, i32 noundef %2, i32 noundef %3) #0 {
  %5 = alloca ptr, align 8
  %6 = alloca i32, align 4
  %7 = alloca i32, align 4
  %8 = alloca i32, align 4
  %9 = alloca i32, align 4
  %10 = alloca ptr, align 8
  %11 = alloca i32, align 4
  %12 = alloca ptr, align 8
  store i32 %0, ptr %6, align 4
  store i32 %1, ptr %7, align 4
  store i32 %2, ptr %8, align 4
  store i32 %3, ptr %9, align 4
  %13 = load i32, ptr %8, align 4
  %14 = icmp sle i32 %13, 0
  br i1 %14, label %24, label %15

15:                                               ; preds = %4
  %16 = load i32, ptr %9, align 4
  %17 = icmp sle i32 %16, 0
  br i1 %17, label %24, label %18

18:                                               ; preds = %15
  %19 = load i32, ptr %7, align 4
  %20 = icmp slt i32 %19, 1
  br i1 %20, label %24, label %21

21:                                               ; preds = %18
  %22 = load i32, ptr %7, align 4
  %23 = icmp sgt i32 %22, 4
  br i1 %23, label %24, label %25

24:                                               ; preds = %21, %18, %15, %4
  store ptr null, ptr %5, align 8
  br label %199

25:                                               ; preds = %21
  %26 = load i32, ptr %8, align 4
  %27 = icmp sgt i32 %26, 0
  br i1 %27, label %28, label %36

28:                                               ; preds = %25
  %29 = load i32, ptr %7, align 4
  %30 = icmp sge i32 %29, 0
  br i1 %30, label %31, label %36

31:                                               ; preds = %28
  %32 = load i32, ptr %8, align 4
  %33 = sdiv i32 2147483647, %32
  %34 = load i32, ptr %7, align 4
  %35 = icmp sgt i32 %33, %34
  br i1 %35, label %37, label %36

36:                                               ; preds = %31, %28, %25
  store ptr null, ptr %5, align 8
  br label %199

37:                                               ; preds = %31
  %38 = load i32, ptr %8, align 4
  %39 = load i32, ptr %7, align 4
  %40 = mul nsw i32 %38, %39
  store i32 %40, ptr %11, align 4
  %41 = load i32, ptr %6, align 4
  switch i32 %41, label %87 [
    i32 5, label %42
    i32 4, label %53
    i32 3, label %53
    i32 6, label %64
    i32 2, label %64
    i32 1, label %75
    i32 0, label %76
  ]

42:                                               ; preds = %37
  %43 = load i32, ptr %11, align 4
  %44 = icmp sgt i32 %43, 0
  br i1 %44, label %45, label %49

45:                                               ; preds = %42
  %46 = load i32, ptr %11, align 4
  %47 = sdiv i32 2147483647, %46
  %48 = icmp sgt i32 %47, 8
  br i1 %48, label %50, label %49

49:                                               ; preds = %45, %42
  store ptr null, ptr %5, align 8
  br label %199

50:                                               ; preds = %45
  %51 = load i32, ptr %11, align 4
  %52 = mul nsw i32 %51, 8
  store i32 %52, ptr %11, align 4
  br label %88

53:                                               ; preds = %37, %37
  %54 = load i32, ptr %11, align 4
  %55 = icmp sgt i32 %54, 0
  br i1 %55, label %56, label %60

56:                                               ; preds = %53
  %57 = load i32, ptr %11, align 4
  %58 = sdiv i32 2147483647, %57
  %59 = icmp sgt i32 %58, 4
  br i1 %59, label %61, label %60

60:                                               ; preds = %56, %53
  store ptr null, ptr %5, align 8
  br label %199

61:                                               ; preds = %56
  %62 = load i32, ptr %11, align 4
  %63 = mul nsw i32 %62, 4
  store i32 %63, ptr %11, align 4
  br label %88

64:                                               ; preds = %37, %37
  %65 = load i32, ptr %11, align 4
  %66 = icmp sgt i32 %65, 0
  br i1 %66, label %67, label %71

67:                                               ; preds = %64
  %68 = load i32, ptr %11, align 4
  %69 = sdiv i32 2147483647, %68
  %70 = icmp sgt i32 %69, 2
  br i1 %70, label %72, label %71

71:                                               ; preds = %67, %64
  store ptr null, ptr %5, align 8
  br label %199

72:                                               ; preds = %67
  %73 = load i32, ptr %11, align 4
  %74 = mul nsw i32 %73, 2
  store i32 %74, ptr %11, align 4
  br label %88

75:                                               ; preds = %37
  br label %88

76:                                               ; preds = %37
  %77 = load i32, ptr %11, align 4
  %78 = icmp sge i32 %77, 0
  br i1 %78, label %79, label %82

79:                                               ; preds = %76
  %80 = load i32, ptr %11, align 4
  %81 = icmp sgt i32 2147483640, %80
  br i1 %81, label %83, label %82

82:                                               ; preds = %79, %76
  store ptr null, ptr %5, align 8
  br label %199

83:                                               ; preds = %79
  %84 = load i32, ptr %11, align 4
  %85 = add nsw i32 %84, 7
  %86 = sdiv i32 %85, 8
  store i32 %86, ptr %11, align 4
  br label %88

87:                                               ; preds = %37
  store ptr null, ptr %5, align 8
  br label %199

88:                                               ; preds = %83, %75, %72, %61, %50
  %89 = load i32, ptr %11, align 4
  %90 = icmp sgt i32 %89, 0
  br i1 %90, label %91, label %99

91:                                               ; preds = %88
  %92 = load i32, ptr %9, align 4
  %93 = icmp sge i32 %92, 0
  br i1 %93, label %94, label %99

94:                                               ; preds = %91
  %95 = load i32, ptr %11, align 4
  %96 = sdiv i32 2147483647, %95
  %97 = load i32, ptr %9, align 4
  %98 = icmp sgt i32 %96, %97
  br i1 %98, label %100, label %99

99:                                               ; preds = %94, %91, %88
  store ptr null, ptr %5, align 8
  br label %199

100:                                              ; preds = %94
  %101 = load i32, ptr %11, align 4
  %102 = load i32, ptr %9, align 4
  %103 = mul nsw i32 %101, %102
  %104 = call ptr @mlib_malloc(i32 noundef %103)
  store ptr %104, ptr %12, align 8
  %105 = load ptr, ptr %12, align 8
  %106 = icmp eq ptr %105, null
  br i1 %106, label %107, label %108

107:                                              ; preds = %100
  store ptr null, ptr %5, align 8
  br label %199

108:                                              ; preds = %100
  %109 = call ptr @mlib_malloc(i32 noundef 64)
  store ptr %109, ptr %10, align 8
  %110 = load ptr, ptr %10, align 8
  %111 = icmp eq ptr %110, null
  br i1 %111, label %112, label %114

112:                                              ; preds = %108
  %113 = load ptr, ptr %12, align 8
  call void @mlib_free(ptr noundef %113)
  store ptr null, ptr %5, align 8
  br label %199

114:                                              ; preds = %108
  %115 = load i32, ptr %6, align 4
  %116 = load ptr, ptr %10, align 8
  %117 = getelementptr inbounds %struct.mlib_image, ptr %116, i32 0, i32 0
  store i32 %115, ptr %117, align 8
  %118 = load i32, ptr %7, align 4
  %119 = load ptr, ptr %10, align 8
  %120 = getelementptr inbounds %struct.mlib_image, ptr %119, i32 0, i32 1
  store i32 %118, ptr %120, align 4
  %121 = load i32, ptr %8, align 4
  %122 = load ptr, ptr %10, align 8
  %123 = getelementptr inbounds %struct.mlib_image, ptr %122, i32 0, i32 2
  store i32 %121, ptr %123, align 8
  %124 = load i32, ptr %9, align 4
  %125 = load ptr, ptr %10, align 8
  %126 = getelementptr inbounds %struct.mlib_image, ptr %125, i32 0, i32 3
  store i32 %124, ptr %126, align 4
  %127 = load i32, ptr %11, align 4
  %128 = load ptr, ptr %10, align 8
  %129 = getelementptr inbounds %struct.mlib_image, ptr %128, i32 0, i32 4
  store i32 %127, ptr %129, align 8
  %130 = load ptr, ptr %12, align 8
  %131 = load ptr, ptr %10, align 8
  %132 = getelementptr inbounds %struct.mlib_image, ptr %131, i32 0, i32 6
  store ptr %130, ptr %132, align 8
  %133 = load i32, ptr %8, align 4
  %134 = and i32 %133, 15
  %135 = shl i32 %134, 8
  %136 = load ptr, ptr %10, align 8
  %137 = getelementptr inbounds %struct.mlib_image, ptr %136, i32 0, i32 5
  store i32 %135, ptr %137, align 4
  %138 = load i32, ptr %9, align 4
  %139 = and i32 %138, 15
  %140 = shl i32 %139, 12
  %141 = load ptr, ptr %10, align 8
  %142 = getelementptr inbounds %struct.mlib_image, ptr %141, i32 0, i32 5
  %143 = load i32, ptr %142, align 4
  %144 = or i32 %143, %140
  store i32 %144, ptr %142, align 4
  %145 = load i32, ptr %11, align 4
  %146 = and i32 %145, 15
  %147 = shl i32 %146, 16
  %148 = load ptr, ptr %10, align 8
  %149 = getelementptr inbounds %struct.mlib_image, ptr %148, i32 0, i32 5
  %150 = load i32, ptr %149, align 4
  %151 = or i32 %150, %147
  store i32 %151, ptr %149, align 4
  %152 = load ptr, ptr %12, align 8
  %153 = ptrtoint ptr %152 to i64
  %154 = and i64 %153, 255
  %155 = load ptr, ptr %10, align 8
  %156 = getelementptr inbounds %struct.mlib_image, ptr %155, i32 0, i32 5
  %157 = load i32, ptr %156, align 4
  %158 = sext i32 %157 to i64
  %159 = or i64 %158, %154
  %160 = trunc i64 %159 to i32
  store i32 %160, ptr %156, align 4
  %161 = load ptr, ptr %10, align 8
  %162 = getelementptr inbounds %struct.mlib_image, ptr %161, i32 0, i32 10
  store i32 0, ptr %162, align 8
  %163 = load ptr, ptr %10, align 8
  %164 = getelementptr inbounds %struct.mlib_image, ptr %163, i32 0, i32 8
  %165 = getelementptr inbounds [4 x i8], ptr %164, i64 0, i64 0
  store i8 0, ptr %165, align 8
  %166 = load ptr, ptr %10, align 8
  %167 = getelementptr inbounds %struct.mlib_image, ptr %166, i32 0, i32 8
  %168 = getelementptr inbounds [4 x i8], ptr %167, i64 0, i64 1
  store i8 0, ptr %168, align 1
  %169 = load ptr, ptr %10, align 8
  %170 = getelementptr inbounds %struct.mlib_image, ptr %169, i32 0, i32 8
  %171 = getelementptr inbounds [4 x i8], ptr %170, i64 0, i64 2
  store i8 0, ptr %171, align 2
  %172 = load ptr, ptr %10, align 8
  %173 = getelementptr inbounds %struct.mlib_image, ptr %172, i32 0, i32 8
  %174 = getelementptr inbounds [4 x i8], ptr %173, i64 0, i64 3
  store i8 0, ptr %174, align 1
  %175 = load ptr, ptr %10, align 8
  %176 = getelementptr inbounds %struct.mlib_image, ptr %175, i32 0, i32 9
  store i32 0, ptr %176, align 4
  %177 = load i32, ptr %6, align 4
  %178 = icmp eq i32 %177, 0
  br i1 %178, label %179, label %191

179:                                              ; preds = %114
  %180 = load i32, ptr %11, align 4
  %181 = mul nsw i32 %180, 8
  %182 = load i32, ptr %8, align 4
  %183 = load i32, ptr %7, align 4
  %184 = mul nsw i32 %182, %183
  %185 = icmp ne i32 %181, %184
  br i1 %185, label %186, label %191

186:                                              ; preds = %179
  %187 = load ptr, ptr %10, align 8
  %188 = getelementptr inbounds %struct.mlib_image, ptr %187, i32 0, i32 5
  %189 = load i32, ptr %188, align 4
  %190 = or i32 %189, 1048576
  store i32 %190, ptr %188, align 4
  br label %191

191:                                              ; preds = %186, %179, %114
  %192 = load ptr, ptr %10, align 8
  %193 = getelementptr inbounds %struct.mlib_image, ptr %192, i32 0, i32 5
  %194 = load i32, ptr %193, align 4
  %195 = and i32 %194, 2147483647
  store i32 %195, ptr %193, align 4
  %196 = load ptr, ptr %10, align 8
  %197 = getelementptr inbounds %struct.mlib_image, ptr %196, i32 0, i32 7
  store ptr null, ptr %197, align 8
  %198 = load ptr, ptr %10, align 8
  store ptr %198, ptr %5, align 8
  br label %199

199:                                              ; preds = %191, %112, %107, %99, %87, %82, %71, %60, %49, %36, %24
  %200 = load ptr, ptr %5, align 8
  ret ptr %200
}