; Function Attrs: nounwind uwtable
define ptr @j2d_mlib_ImageCreate(i32 noundef %0, i32 noundef %1, i32 noundef %2, i32 noundef %3) local_unnamed_addr #1 {
  %5 = icmp slt i32 %2, 1
  %6 = icmp slt i32 %3, 1
  %or.cond = or i1 %5, %6
  %7 = add i32 %1, -5
  %8 = icmp ult i32 %7, -4
  %or.cond5 = or i1 %8, %or.cond
  br i1 %or.cond5, label %66, label %9

9:                                                ; preds = %4
  %10 = udiv i32 2147483647, %2
  %11 = icmp ugt i32 %10, %1
  br i1 %11, label %12, label %66

12:                                               ; preds = %9
  %13 = mul nuw nsw i32 %2, %1
  switch i32 %0, label %66 [
    i32 5, label %14
    i32 4, label %18
    i32 3, label %18
    i32 6, label %22
    i32 2, label %22
    i32 1, label %31
    i32 0, label %26
  ]

14:                                               ; preds = %12
  %15 = icmp ult i32 %13, 238609295
  br i1 %15, label %16, label %66

16:                                               ; preds = %14
  %17 = shl nuw nsw i32 %13, 3
  br label %31

18:                                               ; preds = %12, %12
  %19 = icmp ult i32 %13, 429496730
  br i1 %19, label %20, label %66

20:                                               ; preds = %18
  %21 = shl nuw nsw i32 %13, 2
  br label %31

22:                                               ; preds = %12, %12
  %23 = icmp ult i32 %13, 715827883
  br i1 %23, label %24, label %66

24:                                               ; preds = %22
  %25 = shl nuw nsw i32 %13, 1
  br label %31

26:                                               ; preds = %12
  %27 = icmp ult i32 %13, 2147483640
  br i1 %27, label %28, label %66

28:                                               ; preds = %26
  %29 = add nuw nsw i32 %13, 7
  %30 = lshr i32 %29, 3
  br label %31

31:                                               ; preds = %16, %20, %24, %28, %12
  %.077 = phi i32 [ %30, %28 ], [ %13, %12 ], [ %25, %24 ], [ %21, %20 ], [ %17, %16 ]
  %32 = udiv i32 2147483647, %.077
  %33 = icmp ugt i32 %32, %3
  br i1 %33, label %34, label %66

34:                                               ; preds = %31
  %35 = mul nsw i32 %.077, %3
  %36 = tail call ptr @mlib_malloc(i32 noundef %35) #7
  %37 = icmp eq ptr %36, null
  br i1 %37, label %66, label %38

38:                                               ; preds = %34
  %39 = tail call ptr @mlib_malloc(i32 noundef 64) #7
  %40 = icmp eq ptr %39, null
  br i1 %40, label %41, label %42

41:                                               ; preds = %38
  tail call void @mlib_free(ptr noundef nonnull %36) #7
  br label %66

42:                                               ; preds = %38
  store i32 %0, ptr %39, align 8
  %43 = getelementptr inbounds i8, ptr %39, i64 4
  store i32 %1, ptr %43, align 4
  %44 = getelementptr inbounds i8, ptr %39, i64 8
  store i32 %2, ptr %44, align 8
  %45 = getelementptr inbounds i8, ptr %39, i64 12
  store i32 %3, ptr %45, align 4
  %46 = getelementptr inbounds i8, ptr %39, i64 16
  store i32 %.077, ptr %46, align 8
  %47 = getelementptr inbounds i8, ptr %39, i64 24
  store ptr %36, ptr %47, align 8
  %48 = shl i32 %2, 8
  %49 = and i32 %48, 3840
  %50 = getelementptr inbounds i8, ptr %39, i64 20
  %51 = shl i32 %3, 12
  %52 = and i32 %51, 61440
  %53 = or disjoint i32 %52, %49
  %54 = shl i32 %.077, 16
  %55 = and i32 %54, 983040
  %56 = or disjoint i32 %53, %55
  %57 = ptrtoint ptr %36 to i64
  %58 = trunc i64 %57 to i32
  %59 = and i32 %58, 255
  %60 = or disjoint i32 %56, %59
  %61 = getelementptr inbounds i8, ptr %39, i64 40
  %62 = icmp ne i32 %0, 0
  %63 = shl nsw i32 %.077, 3
  %.not = icmp eq i32 %63, %13
  %or.cond84 = select i1 %62, i1 true, i1 %.not
  tail call void @llvm.memset.p0.i64(ptr noundef nonnull align 8 dereferenceable(12) %61, i8 0, i64 12, i1 false)
  %64 = or disjoint i32 %60, 1048576
  %spec.select = select i1 %or.cond84, i32 %60, i32 %64
  store i32 %spec.select, ptr %50, align 4
  %65 = getelementptr inbounds i8, ptr %39, i64 32
  store ptr null, ptr %65, align 8
  br label %66

66:                                               ; preds = %34, %31, %12, %26, %22, %18, %14, %9, %4, %42, %41
  %.0 = phi ptr [ null, %41 ], [ %39, %42 ], [ null, %4 ], [ null, %9 ], [ null, %14 ], [ null, %18 ], [ null, %22 ], [ null, %26 ], [ null, %12 ], [ null, %31 ], [ null, %34 ]
  ret ptr %.0
}